target datalayout = "e-m:e-p270:32:32-p271:32:32-p272:64:64-i64:64-i128:128-f80:128-n8:16:32:64-S128"
target triple = "x86_64-pc-linux-gnu"

@.str.33 = private unnamed_addr constant [2 x i8] c" \00", align 1

; Function Attrs: nounwind uwtable
define internal zeroext i16 @launch(ptr noundef %0, ptr noundef %1, ptr noundef %2) #0 {
  %4 = alloca i16, align 2
  %5 = alloca ptr, align 8
  %6 = alloca ptr, align 8
  %7 = alloca ptr, align 8
  %8 = alloca i32, align 4
  %9 = alloca ptr, align 8
  %10 = alloca ptr, align 8
  %11 = alloca i32, align 4
  store ptr %0, ptr %5, align 8
  store ptr %1, ptr %6, align 8
  store ptr %2, ptr %7, align 8
  %12 = load ptr, ptr %5, align 8
  %13 = call i64 @strlen(ptr noundef %12) #6
  %14 = trunc i64 %13 to i32
  %15 = load ptr, ptr %6, align 8
  %16 = call i64 @strlen(ptr noundef %15) #6
  %17 = trunc i64 %16 to i32
  %18 = add nsw i32 %14, %17
  %19 = load ptr, ptr %7, align 8
  %20 = call i64 @strlen(ptr noundef %19) #6
  %21 = trunc i64 %20 to i32
  %22 = add nsw i32 %18, %21
  %23 = add nsw i32 %22, 3
  %24 = call ptr @jvmtiAllocate(i32 noundef %23)
  store ptr %24, ptr %10, align 8
  %25 = load ptr, ptr %10, align 8
  %26 = icmp eq ptr %25, null
  br i1 %26, label %27, label %28

27:                                               ; preds = %3
  store i16 110, ptr %4, align 2
  br label %69

28:                                               ; preds = %3
  %29 = load ptr, ptr %10, align 8
  %30 = load ptr, ptr %5, align 8
  %31 = call ptr @strcpy(ptr noundef %29, ptr noundef %30) #7
  %32 = load ptr, ptr %10, align 8
  %33 = call ptr @strcat(ptr noundef %32, ptr noundef @.str.33) #7
  %34 = load ptr, ptr %10, align 8
  %35 = load ptr, ptr %6, align 8
  %36 = call ptr @strcat(ptr noundef %34, ptr noundef %35) #7
  %37 = load ptr, ptr %10, align 8
  %38 = call ptr @strcat(ptr noundef %37, ptr noundef @.str.33) #7
  %39 = load ptr, ptr %10, align 8
  %40 = load ptr, ptr %7, align 8
  %41 = call ptr @strcat(ptr noundef %39, ptr noundef %40) #7
  %42 = load ptr, ptr %10, align 8
  %43 = call i64 @strlen(ptr noundef %42) #6
  %44 = trunc i64 %43 to i32
  store i32 %44, ptr %11, align 4
  %45 = load i32, ptr %11, align 4
  %46 = mul nsw i32 %45, 3
  %47 = add nsw i32 %46, 3
  %48 = call ptr @jvmtiAllocate(i32 noundef %47)
  store ptr %48, ptr %9, align 8
  %49 = load ptr, ptr %9, align 8
  %50 = icmp eq ptr %49, null
  br i1 %50, label %51, label %53

51:                                               ; preds = %28
  %52 = load ptr, ptr %10, align 8
  call void @jvmtiDeallocate(ptr noundef %52)
  store i16 110, ptr %4, align 2
  br label %69

53:                                               ; preds = %28
  %54 = load ptr, ptr %10, align 8
  %55 = load i32, ptr %11, align 4
  %56 = load ptr, ptr %9, align 8
  %57 = load i32, ptr %11, align 4
  %58 = mul nsw i32 %57, 3
  %59 = add nsw i32 %58, 3
  %60 = call i32 @utf8ToPlatform(ptr noundef %54, i32 noundef %55, ptr noundef %56, i32 noundef %59)
  %61 = load ptr, ptr %9, align 8
  %62 = call i32 @dbgsysExec(ptr noundef %61)
  store i32 %62, ptr %8, align 4
  %63 = load ptr, ptr %9, align 8
  call void @jvmtiDeallocate(ptr noundef %63)
  %64 = load ptr, ptr %10, align 8
  call void @jvmtiDeallocate(ptr noundef %64)
  %65 = load i32, ptr %8, align 4
  %66 = icmp ne i32 %65, 0
  br i1 %66, label %67, label %68

67:                                               ; preds = %53
  store i16 510, ptr %4, align 2
  br label %69

68:                                               ; preds = %53
  store i16 0, ptr %4, align 2
  br label %69

69:                                               ; preds = %68, %67, %51, %27
  %70 = load i16, ptr %4, align 2
  ret i16 %70
}