; Function Attrs: nounwind uwtable
define internal fastcc zeroext range(i16 0, 511) i16 @launch(ptr nocapture noundef readonly %0, ptr nocapture noundef readonly %1, ptr nocapture noundef readonly %2) unnamed_addr #0 {
  %4 = tail call i64 @strlen(ptr noundef nonnull dereferenceable(1) %0) #7
  %5 = trunc i64 %4 to i32
  %6 = tail call i64 @strlen(ptr noundef nonnull dereferenceable(1) %1) #7
  %7 = trunc i64 %6 to i32
  %8 = tail call i64 @strlen(ptr noundef nonnull dereferenceable(1) %2) #7
  %9 = trunc i64 %8 to i32
  %10 = add i32 %5, 3
  %11 = add i32 %10, %7
  %12 = add i32 %11, %9
  %13 = tail call ptr @jvmtiAllocate(i32 noundef %12) #6
  %14 = icmp eq ptr %13, null
  br i1 %14, label %29, label %15

15:                                               ; preds = %3
  %16 = tail call ptr @strcpy(ptr noundef nonnull dereferenceable(1) %13, ptr noundef nonnull dereferenceable(1) %0) #6
  %strlen = tail call i64 @strlen(ptr nonnull dereferenceable(1) %13)
  %endptr = getelementptr inbounds i8, ptr %13, i64 %strlen
  store i16 32, ptr %endptr, align 1
  %17 = tail call ptr @strcat(ptr noundef nonnull dereferenceable(1) %13, ptr noundef nonnull dereferenceable(1) %1) #6
  %strlen26 = tail call i64 @strlen(ptr nonnull dereferenceable(1) %13)
  %endptr27 = getelementptr inbounds i8, ptr %13, i64 %strlen26
  store i16 32, ptr %endptr27, align 1
  %18 = tail call ptr @strcat(ptr noundef nonnull dereferenceable(1) %13, ptr noundef nonnull dereferenceable(1) %2) #6
  %19 = tail call i64 @strlen(ptr noundef nonnull dereferenceable(1) %13) #7
  %20 = trunc i64 %19 to i32
  %21 = mul nsw i32 %20, 3
  %22 = add nsw i32 %21, 3
  %23 = tail call ptr @jvmtiAllocate(i32 noundef %22) #6
  %24 = icmp eq ptr %23, null
  br i1 %24, label %25, label %26

25:                                               ; preds = %15
  tail call void @jvmtiDeallocate(ptr noundef nonnull %13) #6
  br label %29

26:                                               ; preds = %15
  %27 = tail call i32 @utf8ToPlatform(ptr noundef nonnull %13, i32 noundef %20, ptr noundef nonnull %23, i32 noundef %22) #6
  %28 = tail call i32 @dbgsysExec(ptr noundef nonnull %23) #6
  tail call void @jvmtiDeallocate(ptr noundef nonnull %23) #6
  tail call void @jvmtiDeallocate(ptr noundef nonnull %13) #6
  %.not = icmp eq i32 %28, 0
  %. = select i1 %.not, i16 0, i16 510
  br label %29

29:                                               ; preds = %26, %3, %25
  %.0 = phi i16 [ 110, %25 ], [ 110, %3 ], [ %., %26 ]
  ret i16 %.0
}